; Function Attrs: nounwind uwtable
define ptr @l_Lake_foldlUtf8M___rarg___lambda__5(i32 noundef %0, ptr noundef %1, ptr noundef %2, ptr noundef %3, ptr noundef %4) local_unnamed_addr #1 {
  %6 = lshr i32 %0, 5
  %7 = and i32 %6, 126
  %8 = or disjoint i32 %7, 257
  %9 = zext nneg i32 %8 to i64
  %10 = inttoptr i64 %9 to ptr
  %11 = ptrtoint ptr %1 to i64
  %12 = and i64 %11, 1
  %.not = icmp eq i64 %12, 0
  br i1 %.not, label %13, label %lean_inc.exit31

13:                                               ; preds = %5
  %.val.i = load i32, ptr %1, align 4, !tbaa !4
  %14 = icmp sgt i32 %.val.i, 0
  br i1 %14, label %15, label %17, !prof !9

15:                                               ; preds = %13
  %16 = add nuw i32 %.val.i, 1
  store i32 %16, ptr %1, align 4, !tbaa !4
  br label %lean_inc.exit31

17:                                               ; preds = %13
  %.not.i = icmp eq i32 %.val.i, 0
  br i1 %.not.i, label %lean_inc.exit31, label %18

18:                                               ; preds = %17
  tail call void @lean_inc_ref_cold(ptr noundef nonnull %1) #7
  br label %lean_inc.exit31

lean_inc.exit31:                                  ; preds = %18, %17, %15, %5
  %19 = tail call ptr @lean_apply_2(ptr noundef %1, ptr noundef %4, ptr noundef nonnull %10) #7
  %20 = ptrtoint ptr %3 to i64
  %21 = and i64 %20, 1
  %.not35 = icmp eq i64 %21, 0
  br i1 %.not35, label %22, label %lean_inc.exit

22:                                               ; preds = %lean_inc.exit31
  %.val.i32 = load i32, ptr %3, align 4, !tbaa !4
  %23 = icmp sgt i32 %.val.i32, 0
  br i1 %23, label %24, label %26, !prof !9

24:                                               ; preds = %22
  %25 = add nuw i32 %.val.i32, 1
  store i32 %25, ptr %3, align 4, !tbaa !4
  br label %lean_inc.exit

26:                                               ; preds = %22
  %.not.i33 = icmp eq i32 %.val.i32, 0
  br i1 %.not.i33, label %lean_inc.exit, label %27

27:                                               ; preds = %26
  tail call void @lean_inc_ref_cold(ptr noundef nonnull %3) #7
  br label %lean_inc.exit

lean_inc.exit:                                    ; preds = %27, %26, %24, %lean_inc.exit31
  tail call void @lean_inc_heartbeat() #7
  %28 = tail call noalias ptr @mi_malloc_small(i64 noundef 72) #7
  %29 = icmp eq ptr %28, null
  br i1 %29, label %30, label %lean_alloc_closure.exit

30:                                               ; preds = %lean_inc.exit
  tail call void @lean_internal_panic_out_of_memory() #8
  unreachable

lean_alloc_closure.exit:                          ; preds = %lean_inc.exit
  %31 = zext i32 %0 to i64
  %32 = shl nuw nsw i64 %31, 1
  %33 = or disjoint i64 %32, 1
  %34 = inttoptr i64 %33 to ptr
  %35 = getelementptr inbounds nuw i8, ptr %28, i64 4
  store i32 1, ptr %28, align 4, !tbaa !4
  store i32 -184549304, ptr %35, align 4
  %36 = getelementptr inbounds nuw i8, ptr %28, i64 8
  store ptr @l_Lake_foldlUtf8M___rarg___lambda__2___boxed, ptr %36, align 8, !tbaa !10
  %37 = getelementptr inbounds nuw i8, ptr %28, i64 16
  store i16 7, ptr %37, align 8, !tbaa !14
  %38 = getelementptr inbounds nuw i8, ptr %28, i64 18
  store i16 6, ptr %38, align 2, !tbaa !14
  %39 = getelementptr inbounds nuw i8, ptr %28, i64 24
  store ptr %34, ptr %39, align 8, !tbaa !10
  %40 = getelementptr inbounds nuw i8, ptr %28, i64 32
  store ptr inttoptr (i64 127 to ptr), ptr %40, align 8, !tbaa !10
  %41 = getelementptr inbounds nuw i8, ptr %28, i64 40
  store ptr inttoptr (i64 257 to ptr), ptr %41, align 8, !tbaa !10
  %42 = getelementptr inbounds nuw i8, ptr %28, i64 48
  store ptr %1, ptr %42, align 8, !tbaa !10
  %43 = getelementptr inbounds nuw i8, ptr %28, i64 56
  store ptr %2, ptr %43, align 8, !tbaa !10
  %44 = getelementptr inbounds nuw i8, ptr %28, i64 64
  store ptr %3, ptr %44, align 8, !tbaa !10
  %45 = tail call ptr @lean_apply_4(ptr noundef %3, ptr noundef nonnull inttoptr (i64 1 to ptr), ptr noundef nonnull inttoptr (i64 1 to ptr), ptr noundef %19, ptr noundef nonnull %28) #7
  ret ptr %45
}